target datalayout = "e-m:e-p270:32:32-p271:32:32-p272:64:64-i64:64-i128:128-f80:128-n8:16:32:64-S128"
target triple = "x86_64-pc-linux-gnu"

%struct.H5C_class_t = type { i32, ptr, i32, i32, ptr, ptr, ptr, ptr, ptr, ptr, ptr, ptr, ptr, ptr }
%struct.H5HF_indirect_t = type { %struct.H5C_cache_entry_t, i64, ptr, ptr, ptr, i32, i64, i64, i32, i32, i32, i32, ptr, i8, i64, ptr, ptr }
%struct.H5C_cache_entry_t = type { ptr, i64, i64, ptr, i8, ptr, i8, i8, i8, i8, i32, i8, i8, i8, i8, i8, i32, ptr, i32, i32, i32, i32, i32, i8, i8, ptr, ptr, ptr, ptr, ptr, ptr, i8, i32, i8, i64, ptr, i64, i64, i32, i8, i32, i32, i8, ptr, ptr, ptr }
%struct.H5HF_hdr_t = type { %struct.H5C_cache_entry_t, i32, i32, i8, i8, i8, i8, %struct.H5HF_dtable_t, i64, i64, i32, i64, i64, %struct.H5O_pline_t, i64, i32, i64, i64, i64, i64, i64, i64, i64, i64, i64, i64, i64, i32, ptr, i64, i8, i8, i8, ptr, i32, ptr, %struct.H5HF_block_iter_t, ptr, i64, i8, i8, i64, i8, i8, i8, i8 }
%struct.H5HF_dtable_t = type { %struct.H5HF_dtable_cparam_t, i64, i32, i32, i32, i32, i32, i32, i32, i64, ptr, ptr, ptr, ptr }
%struct.H5HF_dtable_cparam_t = type { i32, i64, i64, i32, i32 }
%struct.H5O_pline_t = type { %struct.H5O_shared_t, i32, i64, i64, ptr }
%struct.H5O_shared_t = type { i32, ptr, i32, %union.anon }
%union.anon = type { %struct.H5O_mesg_loc_t }
%struct.H5O_mesg_loc_t = type { i32, i64 }
%struct.H5HF_block_iter_t = type { i8, ptr }
%struct.H5HF_parent_t = type { ptr, ptr, i32 }
%struct.H5HF_iblock_cache_ud_t = type { ptr, ptr, ptr }

@H5HF_init_g = external global i8, align 1
@H5_libterm_g = external global i8, align 1
@.str.4 = private unnamed_addr constant [104 x i8] c"generated/home/dtcxzyw/WorkSpace/Projects/compilers/llvm-opt-benchmark/bench/hdf5/hdf5/src/H5HFiblock.c\00", align 1
@H5E_HEAP_g = external global i64, align 8
@H5E_CANTPROTECT_g = external global i64, align 8
@.str.10 = private unnamed_addr constant [46 x i8] c"unable to protect fractal heap indirect block\00", align 1
@H5AC_FHEAP_IBLOCK = external constant [1 x %struct.H5C_class_t], align 16
@__func__.H5HF__man_iblock_protect = private unnamed_addr constant [25 x i8] c"H5HF__man_iblock_protect\00", align 1

; Function Attrs: nounwind uwtable
define ptr @H5HF__man_iblock_protect(ptr noundef %0, i64 noundef %1, i32 noundef %2, ptr noundef %3, i32 noundef %4, i1 noundef zeroext %5, i32 noundef %6, ptr noundef %7) #0 {
  %9 = alloca ptr, align 8
  %10 = alloca ptr, align 8
  %11 = alloca i64, align 8
  %12 = alloca i32, align 4
  %13 = alloca ptr, align 8
  %14 = alloca i32, align 4
  %15 = alloca i8, align 1
  %16 = alloca i32, align 4
  %17 = alloca ptr, align 8
  %18 = alloca %struct.H5HF_parent_t, align 8
  %19 = alloca ptr, align 8
  %20 = alloca i8, align 1
  %21 = alloca ptr, align 8
  %22 = alloca i8, align 1
  %23 = alloca i32, align 4
  %24 = alloca %struct.H5HF_iblock_cache_ud_t, align 8
  %25 = alloca i32, align 4
  store ptr %0, ptr %10, align 8, !tbaa !52
  store i64 %1, ptr %11, align 8, !tbaa !28
  store i32 %2, ptr %12, align 4, !tbaa !8
  store ptr %3, ptr %13, align 8, !tbaa !3
  store i32 %4, ptr %14, align 4, !tbaa !8
  %26 = zext i1 %5 to i8
  store i8 %26, ptr %15, align 1, !tbaa !10
  store i32 %6, ptr %16, align 4, !tbaa !8
  store ptr %7, ptr %17, align 8, !tbaa !91
  call void @llvm.lifetime.start.p0(i64 24, ptr %18) #7
  call void @llvm.lifetime.start.p0(i64 8, ptr %19) #7
  store ptr null, ptr %19, align 8, !tbaa !3
  call void @llvm.lifetime.start.p0(i64 1, ptr %20) #7
  store i8 0, ptr %20, align 1, !tbaa !10
  call void @llvm.lifetime.start.p0(i64 8, ptr %21) #7
  store ptr null, ptr %21, align 8, !tbaa !3
  call void @llvm.lifetime.start.p0(i64 1, ptr %22) #7
  store i8 0, ptr %22, align 1, !tbaa !10
  %27 = load i8, ptr @H5HF_init_g, align 1, !tbaa !10, !range !12, !noundef !13
  %28 = trunc i8 %27 to i1
  br i1 %28, label %33, label %29

29:                                               ; preds = %8
  %30 = load i8, ptr @H5_libterm_g, align 1, !tbaa !10, !range !12, !noundef !13
  %31 = trunc i8 %30 to i1
  %32 = xor i1 %31, true
  br label %33

33:                                               ; preds = %29, %8
  %34 = phi i1 [ true, %8 ], [ %32, %29 ]
  %35 = xor i1 %34, true
  %36 = xor i1 %35, true
  %37 = zext i1 %36 to i32
  %38 = sext i32 %37 to i64
  %39 = call i64 @llvm.expect.i64(i64 %38, i64 1)
  %40 = icmp ne i64 %39, 0
  br i1 %40, label %41, label %179

41:                                               ; preds = %33
  %42 = load i8, ptr %15, align 1, !tbaa !10, !range !12, !noundef !13
  %43 = trunc i8 %42 to i1
  br i1 %43, label %102, label %44

44:                                               ; preds = %41
  %45 = load ptr, ptr %13, align 8, !tbaa !3
  %46 = icmp ne ptr %45, null
  br i1 %46, label %47, label %78

47:                                               ; preds = %44
  call void @llvm.lifetime.start.p0(i64 4, ptr %23) #7
  %48 = load i32, ptr %14, align 4, !tbaa !8
  %49 = load ptr, ptr %10, align 8, !tbaa !52
  %50 = getelementptr inbounds nuw %struct.H5HF_hdr_t, ptr %49, i32 0, i32 7
  %51 = getelementptr inbounds nuw %struct.H5HF_dtable_t, ptr %50, i32 0, i32 4
  %52 = load i32, ptr %51, align 8, !tbaa !32
  %53 = load ptr, ptr %10, align 8, !tbaa !52
  %54 = getelementptr inbounds nuw %struct.H5HF_hdr_t, ptr %53, i32 0, i32 7
  %55 = getelementptr inbounds nuw %struct.H5HF_dtable_t, ptr %54, i32 0, i32 0
  %56 = getelementptr inbounds nuw %struct.H5HF_dtable_cparam_t, ptr %55, i32 0, i32 0
  %57 = load i32, ptr %56, align 8, !tbaa !44
  %58 = mul i32 %52, %57
  %59 = sub i32 %48, %58
  store i32 %59, ptr %23, align 4, !tbaa !8
  %60 = load ptr, ptr %13, align 8, !tbaa !3
  %61 = getelementptr inbounds nuw %struct.H5HF_indirect_t, ptr %60, i32 0, i32 12
  %62 = load ptr, ptr %61, align 8, !tbaa !45
  %63 = load i32, ptr %23, align 4, !tbaa !8
  %64 = zext i32 %63 to i64
  %65 = getelementptr inbounds nuw ptr, ptr %62, i64 %64
  %66 = load ptr, ptr %65, align 8, !tbaa !3
  %67 = icmp ne ptr %66, null
  br i1 %67, label %68, label %76

68:                                               ; preds = %47
  %69 = load ptr, ptr %13, align 8, !tbaa !3
  %70 = getelementptr inbounds nuw %struct.H5HF_indirect_t, ptr %69, i32 0, i32 12
  %71 = load ptr, ptr %70, align 8, !tbaa !45
  %72 = load i32, ptr %23, align 4, !tbaa !8
  %73 = zext i32 %72 to i64
  %74 = getelementptr inbounds nuw ptr, ptr %71, i64 %73
  %75 = load ptr, ptr %74, align 8, !tbaa !3
  store ptr %75, ptr %19, align 8, !tbaa !3
  br label %77

76:                                               ; preds = %47
  store i8 1, ptr %20, align 1, !tbaa !10
  br label %77

77:                                               ; preds = %76, %68
  call void @llvm.lifetime.end.p0(i64 4, ptr %23) #7
  br label %101

78:                                               ; preds = %44
  %79 = load i64, ptr %11, align 8, !tbaa !28
  %80 = icmp ne i64 %79, -1
  br i1 %80, label %81, label %99

81:                                               ; preds = %78
  %82 = load i64, ptr %11, align 8, !tbaa !28
  %83 = load ptr, ptr %10, align 8, !tbaa !52
  %84 = getelementptr inbounds nuw %struct.H5HF_hdr_t, ptr %83, i32 0, i32 7
  %85 = getelementptr inbounds nuw %struct.H5HF_dtable_t, ptr %84, i32 0, i32 1
  %86 = load i64, ptr %85, align 8, !tbaa !56
  %87 = icmp eq i64 %82, %86
  br i1 %87, label %88, label %99

88:                                               ; preds = %81
  %89 = load ptr, ptr %10, align 8, !tbaa !52
  %90 = getelementptr inbounds nuw %struct.H5HF_hdr_t, ptr %89, i32 0, i32 34
  %91 = load i32, ptr %90, align 8, !tbaa !47
  %92 = icmp eq i32 1, %91
  br i1 %92, label %93, label %97

93:                                               ; preds = %88
  %94 = load ptr, ptr %10, align 8, !tbaa !52
  %95 = getelementptr inbounds nuw %struct.H5HF_hdr_t, ptr %94, i32 0, i32 33
  %96 = load ptr, ptr %95, align 8, !tbaa !48
  store ptr %96, ptr %19, align 8, !tbaa !3
  br label %98

97:                                               ; preds = %88
  store i8 1, ptr %20, align 1, !tbaa !10
  br label %98

98:                                               ; preds = %97, %93
  br label %100

99:                                               ; preds = %81, %78
  store i8 1, ptr %20, align 1, !tbaa !10
  br label %100

100:                                              ; preds = %99, %98
  br label %101

101:                                              ; preds = %100, %77
  br label %102

102:                                              ; preds = %101, %41
  %103 = load i8, ptr %15, align 1, !tbaa !10, !range !12, !noundef !13
  %104 = trunc i8 %103 to i1
  br i1 %104, label %108, label %105

105:                                              ; preds = %102
  %106 = load i8, ptr %20, align 1, !tbaa !10, !range !12, !noundef !13
  %107 = trunc i8 %106 to i1
  br i1 %107, label %108, label %174

108:                                              ; preds = %105, %102
  call void @llvm.lifetime.start.p0(i64 24, ptr %24) #7
  %109 = load ptr, ptr %10, align 8, !tbaa !52
  %110 = getelementptr inbounds nuw %struct.H5HF_parent_t, ptr %18, i32 0, i32 0
  store ptr %109, ptr %110, align 8, !tbaa !93
  %111 = load ptr, ptr %13, align 8, !tbaa !3
  %112 = getelementptr inbounds nuw %struct.H5HF_parent_t, ptr %18, i32 0, i32 1
  store ptr %111, ptr %112, align 8, !tbaa !95
  %113 = load i32, ptr %14, align 4, !tbaa !8
  %114 = getelementptr inbounds nuw %struct.H5HF_parent_t, ptr %18, i32 0, i32 2
  store i32 %113, ptr %114, align 8, !tbaa !96
  %115 = load ptr, ptr %10, align 8, !tbaa !52
  %116 = getelementptr inbounds nuw %struct.H5HF_hdr_t, ptr %115, i32 0, i32 28
  %117 = load ptr, ptr %116, align 8, !tbaa !70
  %118 = getelementptr inbounds nuw %struct.H5HF_iblock_cache_ud_t, ptr %24, i32 0, i32 1
  store ptr %117, ptr %118, align 8, !tbaa !97
  %119 = getelementptr inbounds nuw %struct.H5HF_iblock_cache_ud_t, ptr %24, i32 0, i32 0
  store ptr %18, ptr %119, align 8, !tbaa !101
  %120 = getelementptr inbounds nuw %struct.H5HF_iblock_cache_ud_t, ptr %24, i32 0, i32 2
  store ptr %12, ptr %120, align 8, !tbaa !102
  %121 = load ptr, ptr %10, align 8, !tbaa !52
  %122 = getelementptr inbounds nuw %struct.H5HF_hdr_t, ptr %121, i32 0, i32 28
  %123 = load ptr, ptr %122, align 8, !tbaa !70
  %124 = load i64, ptr %11, align 8, !tbaa !28
  %125 = load i32, ptr %16, align 4, !tbaa !8
  %126 = call ptr @H5AC_protect(ptr noundef %123, ptr noundef @H5AC_FHEAP_IBLOCK, i64 noundef %124, ptr noundef %24, i32 noundef %125)
  store ptr %126, ptr %19, align 8, !tbaa !3
  %127 = icmp eq ptr null, %126
  br i1 %127, label %128, label %147

128:                                              ; preds = %108
  br label %129

129:                                              ; preds = %128
  br label %130

130:                                              ; preds = %129
  br label %131

131:                                              ; preds = %130
  %132 = load i64, ptr @H5E_HEAP_g, align 8, !tbaa !28
  %133 = load i64, ptr @H5E_CANTPROTECT_g, align 8, !tbaa !28
  %134 = call i32 (ptr, ptr, i32, i64, i64, ptr, ...) @H5E_printf_stack(ptr noundef @.str.4, ptr noundef @__func__.H5HF__man_iblock_protect, i32 noundef 1157, i64 noundef %132, i64 noundef %133, ptr noundef @.str.10)
  br label %135

135:                                              ; preds = %131
  br label %136

136:                                              ; preds = %135
  store i8 1, ptr %22, align 1, !tbaa !10
  %137 = load i8, ptr %22, align 1, !tbaa !10, !range !12, !noundef !13
  %138 = trunc i8 %137 to i1
  %139 = zext i1 %138 to i8
  store i8 %139, ptr %22, align 1, !tbaa !10
  br label %140

140:                                              ; preds = %136
  br label %141

141:                                              ; preds = %140
  br label %142

142:                                              ; preds = %141
  store ptr null, ptr %21, align 8, !tbaa !3
  store i32 10, ptr %25, align 4
  br label %171

143:                                              ; No predecessors!
  br label %144

144:                                              ; preds = %143
  br label %145

145:                                              ; preds = %144
  br label %146

146:                                              ; preds = %145
  br label %147

147:                                              ; preds = %146, %108
  %148 = load i64, ptr %11, align 8, !tbaa !28
  %149 = load ptr, ptr %19, align 8, !tbaa !3
  %150 = getelementptr inbounds nuw %struct.H5HF_indirect_t, ptr %149, i32 0, i32 6
  store i64 %148, ptr %150, align 8, !tbaa !86
  %151 = load ptr, ptr %19, align 8, !tbaa !3
  %152 = getelementptr inbounds nuw %struct.H5HF_indirect_t, ptr %151, i32 0, i32 14
  %153 = load i64, ptr %152, align 8, !tbaa !46
  %154 = icmp eq i64 %153, 0
  br i1 %154, label %155, label %169

155:                                              ; preds = %147
  %156 = load ptr, ptr %10, align 8, !tbaa !52
  %157 = getelementptr inbounds nuw %struct.H5HF_hdr_t, ptr %156, i32 0, i32 34
  %158 = load i32, ptr %157, align 8, !tbaa !47
  %159 = icmp eq i32 0, %158
  br i1 %159, label %160, label %164

160:                                              ; preds = %155
  %161 = load ptr, ptr %19, align 8, !tbaa !3
  %162 = load ptr, ptr %10, align 8, !tbaa !52
  %163 = getelementptr inbounds nuw %struct.H5HF_hdr_t, ptr %162, i32 0, i32 33
  store ptr %161, ptr %163, align 8, !tbaa !48
  br label %164

164:                                              ; preds = %160, %155
  %165 = load ptr, ptr %10, align 8, !tbaa !52
  %166 = getelementptr inbounds nuw %struct.H5HF_hdr_t, ptr %165, i32 0, i32 34
  %167 = load i32, ptr %166, align 8, !tbaa !47
  %168 = or i32 %167, 2
  store i32 %168, ptr %166, align 8, !tbaa !47
  br label %169

169:                                              ; preds = %164, %147
  %170 = load ptr, ptr %17, align 8, !tbaa !91
  store i8 1, ptr %170, align 1, !tbaa !10
  store i32 0, ptr %25, align 4
  br label %171

171:                                              ; preds = %142, %169
  call void @llvm.lifetime.end.p0(i64 24, ptr %24) #7
  %172 = load i32, ptr %25, align 4
  switch i32 %172, label %181 [
    i32 0, label %173
    i32 10, label %178
  ]

173:                                              ; preds = %171
  br label %176

174:                                              ; preds = %105
  %175 = load ptr, ptr %17, align 8, !tbaa !91
  store i8 0, ptr %175, align 1, !tbaa !10
  br label %176

176:                                              ; preds = %174, %173
  %177 = load ptr, ptr %19, align 8, !tbaa !3
  store ptr %177, ptr %21, align 8, !tbaa !3
  br label %178

178:                                              ; preds = %176, %171
  br label %179

179:                                              ; preds = %178, %33
  %180 = load ptr, ptr %21, align 8, !tbaa !3
  store ptr %180, ptr %9, align 8
  store i32 1, ptr %25, align 4
  br label %181

181:                                              ; preds = %179, %171
  call void @llvm.lifetime.end.p0(i64 1, ptr %22) #7
  call void @llvm.lifetime.end.p0(i64 8, ptr %21) #7
  call void @llvm.lifetime.end.p0(i64 1, ptr %20) #7
  call void @llvm.lifetime.end.p0(i64 8, ptr %19) #7
  call void @llvm.lifetime.end.p0(i64 24, ptr %18) #7
  %182 = load ptr, ptr %9, align 8
  ret ptr %182
}