; Function Attrs: nounwind uwtable
define ptr @H5HF__man_iblock_protect(ptr noundef %0, i64 noundef %1, i32 noundef %2, ptr noundef %3, i32 noundef %4, i1 noundef zeroext %5, i32 noundef %6, ptr noundef writeonly captures(none) %7) local_unnamed_addr #0 {
  %9 = alloca i32, align 4
  %10 = alloca %struct.H5HF_parent_t, align 8
  %11 = alloca %struct.H5HF_iblock_cache_ud_t, align 8
  store i32 %2, ptr %9, align 4, !tbaa !54
  call void @llvm.lifetime.start.p0(i64 24, ptr nonnull %10) #6
  %12 = load i8, ptr @H5HF_init_g, align 1, !tbaa !3, !range !7, !noundef !8
  %13 = trunc nuw i8 %12 to i1
  %14 = load i8, ptr @H5_libterm_g, align 1, !range !7
  %15 = trunc nuw i8 %14 to i1
  %16 = xor i1 %15, true
  %17 = select i1 %13, i1 true, i1 %16
  br i1 %17, label %18, label %70, !prof !9

18:                                               ; preds = %8
  br i1 %5, label %.thread, label %19

19:                                               ; preds = %18
  %.not = icmp eq ptr %3, null
  br i1 %.not, label %20, label %31

20:                                               ; preds = %19
  %.not46 = icmp eq i64 %1, -1
  br i1 %.not46, label %.thread, label %21

21:                                               ; preds = %20
  %22 = getelementptr inbounds nuw i8, ptr %0, i64 296
  %23 = load i64, ptr %22, align 8, !tbaa !56
  %24 = icmp eq i64 %1, %23
  br i1 %24, label %25, label %.thread

25:                                               ; preds = %21
  %26 = getelementptr inbounds nuw i8, ptr %0, i64 632
  %27 = load i32, ptr %26, align 8, !tbaa !46
  %28 = icmp eq i32 %27, 1
  br i1 %28, label %.thread54, label %.thread

.thread54:                                        ; preds = %25
  %29 = getelementptr inbounds nuw i8, ptr %0, i64 624
  %30 = load ptr, ptr %29, align 8, !tbaa !47
  br label %69

31:                                               ; preds = %19
  %32 = getelementptr inbounds nuw i8, ptr %0, i64 264
  %33 = getelementptr inbounds nuw i8, ptr %0, i64 312
  %34 = load i32, ptr %33, align 8, !tbaa !30
  %35 = load i32, ptr %32, align 8, !tbaa !42
  %36 = mul i32 %35, %34
  %37 = sub i32 %4, %36
  %38 = getelementptr inbounds nuw i8, ptr %3, i64 320
  %39 = load ptr, ptr %38, align 8, !tbaa !43
  %40 = zext i32 %37 to i64
  %41 = getelementptr inbounds nuw ptr, ptr %39, i64 %40
  %42 = load ptr, ptr %41, align 8, !tbaa !44
  %.not47 = icmp eq ptr %42, null
  br i1 %.not47, label %.thread, label %69

.thread:                                          ; preds = %20, %21, %25, %18, %31
  call void @llvm.lifetime.start.p0(i64 24, ptr nonnull %11) #6
  store ptr %0, ptr %10, align 8, !tbaa !57
  %43 = getelementptr inbounds nuw i8, ptr %10, i64 8
  store ptr %3, ptr %43, align 8, !tbaa !59
  %44 = getelementptr inbounds nuw i8, ptr %10, i64 16
  store i32 %4, ptr %44, align 8, !tbaa !60
  %45 = getelementptr inbounds nuw i8, ptr %0, i64 600
  %46 = load ptr, ptr %45, align 8, !tbaa !61
  %47 = getelementptr inbounds nuw i8, ptr %11, i64 8
  store ptr %46, ptr %47, align 8, !tbaa !62
  store ptr %10, ptr %11, align 8, !tbaa !66
  %48 = getelementptr inbounds nuw i8, ptr %11, i64 16
  store ptr %9, ptr %48, align 8, !tbaa !67
  %49 = call ptr @H5AC_protect(ptr noundef %46, ptr noundef nonnull @H5AC_FHEAP_IBLOCK, i64 noundef %1, ptr noundef nonnull %11, i32 noundef %6) #6
  %50 = icmp eq ptr %49, null
  br i1 %50, label %64, label %51

51:                                               ; preds = %.thread
  %52 = getelementptr inbounds nuw i8, ptr %49, i64 288
  store i64 %1, ptr %52, align 8, !tbaa !68
  %53 = getelementptr inbounds nuw i8, ptr %49, i64 336
  %54 = load i64, ptr %53, align 8, !tbaa !45
  %55 = icmp eq i64 %54, 0
  br i1 %55, label %56, label %68

56:                                               ; preds = %51
  %57 = getelementptr inbounds nuw i8, ptr %0, i64 632
  %58 = load i32, ptr %57, align 8, !tbaa !46
  %59 = icmp eq i32 %58, 0
  br i1 %59, label %60, label %62

60:                                               ; preds = %56
  %61 = getelementptr inbounds nuw i8, ptr %0, i64 624
  store ptr %49, ptr %61, align 8, !tbaa !47
  br label %62

62:                                               ; preds = %60, %56
  %63 = or i32 %58, 2
  store i32 %63, ptr %57, align 8, !tbaa !46
  br label %68

64:                                               ; preds = %.thread
  %65 = load i64, ptr @H5E_HEAP_g, align 8, !tbaa !48
  %66 = load i64, ptr @H5E_CANTPROTECT_g, align 8, !tbaa !48
  %67 = call i32 (ptr, ptr, i32, i64, i64, ptr, ...) @H5E_printf_stack(ptr noundef nonnull @.str.4, ptr noundef nonnull @__func__.H5HF__man_iblock_protect, i32 noundef 1157, i64 noundef %65, i64 noundef %66, ptr noundef nonnull @.str.10) #6
  call void @llvm.lifetime.end.p0(i64 24, ptr nonnull %11) #6
  br label %70

68:                                               ; preds = %51, %62
  store i8 1, ptr %7, align 1, !tbaa !3
  call void @llvm.lifetime.end.p0(i64 24, ptr nonnull %11) #6
  br label %70

69:                                               ; preds = %.thread54, %31
  %.04057 = phi ptr [ %30, %.thread54 ], [ %42, %31 ]
  store i8 0, ptr %7, align 1, !tbaa !3
  br label %70

70:                                               ; preds = %68, %64, %8, %69
  %.036 = phi ptr [ null, %8 ], [ %.04057, %69 ], [ %49, %68 ], [ null, %64 ]
  call void @llvm.lifetime.end.p0(i64 24, ptr nonnull %10) #6
  ret ptr %.036
}